target datalayout = "e-m:e-p270:32:32-p271:32:32-p272:64:64-i64:64-i128:128-f80:128-n8:16:32:64-S128"
target triple = "x86_64-pc-linux-gnu"

%struct.Vmem = type { ptr, i64, i64 }
%struct.Expr_ = type { ptr, %union.SourceSpan, i16, %union.anon.29 }
%union.SourceSpan = type { i64 }
%union.anon.29 = type { %struct.ExprAnySwitch }
%struct.ExprAnySwitch = type { i8, %union.anon.31 }
%union.anon.31 = type { %struct.anon.32 }
%struct.anon.32 = type { ptr, %union.SourceSpan, ptr }
%struct.ExprCast = type { i8, i32, i32 }
%struct.ExprUnary = type { ptr, i8 }

@.str.2 = private unnamed_addr constant [36 x i8] c"FATAL ERROR %s -> in %s @ in %s:%d \00", align 1
@.str.3 = private unnamed_addr constant [22 x i8] c"Should be unreachable\00", align 1
@.str.4 = private unnamed_addr constant [111 x i8] c"generated/home/dtcxzyw/WorkSpace/Projects/compilers/llvm-opt-benchmark/bench/c3c/c3c/src/compiler/sema_casts.c\00", align 1
@expr_arena = external global %struct.Vmem, align 8
@__func__.cast_sa_to_vecarr = private unnamed_addr constant [18 x i8] c"cast_sa_to_vecarr\00", align 1

; Function Attrs: nounwind uwtable
define internal ptr @expr_calloc() #0 {
  %1 = call ptr @vmem_alloc(ptr noundef @expr_arena, i64 noundef 56)
  ret ptr %1
}

; Function Attrs: nounwind uwtable
define internal i32 @exprid(ptr noundef %0) #0 {
  %2 = alloca ptr, align 8
  store ptr %0, ptr %2, align 8
  %3 = load ptr, ptr %2, align 8
  %4 = load ptr, ptr @expr_arena, align 8
  %5 = ptrtoint ptr %3 to i64
  %6 = ptrtoint ptr %4 to i64
  %7 = sub i64 %5, %6
  %8 = sdiv exact i64 %7, 56
  %9 = trunc i64 %8 to i32
  ret i32 %9
}

; Function Attrs: nounwind uwtable
define internal ptr @expr_copy(ptr noundef %0) #0 {
  %2 = alloca ptr, align 8
  %3 = alloca ptr, align 8
  store ptr %0, ptr %2, align 8
  %4 = call ptr @expr_calloc()
  store ptr %4, ptr %3, align 8
  %5 = load ptr, ptr %3, align 8
  %6 = load ptr, ptr %2, align 8
  call void @llvm.memcpy.p0.p0.i64(ptr align 8 %5, ptr align 8 %6, i64 56, i1 false)
  %7 = load ptr, ptr %3, align 8
  ret ptr %7
}

; Function Attrs: nounwind uwtable
define internal zeroext i1 @insert_runtime_cast(ptr noundef %0, i32 noundef %1, ptr noundef %2) #0 {
  %4 = alloca ptr, align 8
  %5 = alloca i32, align 4
  %6 = alloca ptr, align 8
  %7 = alloca ptr, align 8
  store ptr %0, ptr %4, align 8
  store i32 %1, ptr %5, align 4
  store ptr %2, ptr %6, align 8
  %8 = load ptr, ptr %4, align 8
  %9 = call ptr @expr_copy(ptr noundef %8)
  store ptr %9, ptr %7, align 8
  %10 = load ptr, ptr %4, align 8
  %11 = getelementptr inbounds %struct.Expr_, ptr %10, i32 0, i32 2
  %12 = load i16, ptr %11, align 8
  %13 = and i16 %12, -256
  %14 = or i16 %13, 9
  store i16 %14, ptr %11, align 8
  %15 = load i32, ptr %5, align 4
  %16 = load ptr, ptr %4, align 8
  %17 = getelementptr inbounds %struct.Expr_, ptr %16, i32 0, i32 3
  %18 = trunc i32 %15 to i8
  store i8 %18, ptr %17, align 8
  %19 = load ptr, ptr %7, align 8
  %20 = call i32 @exprid(ptr noundef %19)
  %21 = load ptr, ptr %4, align 8
  %22 = getelementptr inbounds %struct.Expr_, ptr %21, i32 0, i32 3
  %23 = getelementptr inbounds %struct.ExprCast, ptr %22, i32 0, i32 1
  store i32 %20, ptr %23, align 4
  %24 = load ptr, ptr %4, align 8
  %25 = getelementptr inbounds %struct.Expr_, ptr %24, i32 0, i32 3
  %26 = getelementptr inbounds %struct.ExprCast, ptr %25, i32 0, i32 2
  store i32 0, ptr %26, align 8
  %27 = load ptr, ptr %6, align 8
  %28 = load ptr, ptr %4, align 8
  %29 = getelementptr inbounds %struct.Expr_, ptr %28, i32 0, i32 0
  store ptr %27, ptr %29, align 8
  ret i1 true
}

; Function Attrs: nounwind uwtable
define internal ptr @exprptr(i32 noundef %0) #0 {
  %2 = alloca i32, align 4
  store i32 %0, ptr %2, align 4
  %3 = load ptr, ptr @expr_arena, align 8
  %4 = load i32, ptr %2, align 4
  %5 = zext i32 %4 to i64
  %6 = getelementptr inbounds %struct.Expr_, ptr %3, i64 %5
  ret ptr %6
}

; Function Attrs: nounwind uwtable
define internal void @cast_sa_to_vecarr(ptr noundef %0, ptr noundef %1, ptr noundef %2) #0 {
  %4 = alloca ptr, align 8
  %5 = alloca ptr, align 8
  %6 = alloca %union.SourceSpan, align 8
  %7 = alloca ptr, align 8
  %8 = alloca ptr, align 8
  %9 = alloca ptr, align 8
  %10 = alloca ptr, align 8
  %11 = alloca ptr, align 8
  store ptr %0, ptr %8, align 8
  store ptr %1, ptr %9, align 8
  store ptr %2, ptr %10, align 8
  %12 = load ptr, ptr %9, align 8
  store ptr %12, ptr %7, align 8
  %13 = load ptr, ptr %7, align 8
  %14 = getelementptr inbounds %struct.Expr_, ptr %13, i32 0, i32 2
  %15 = load i16, ptr %14, align 8
  %16 = and i16 %15, 255
  %17 = zext i16 %16 to i32
  %18 = icmp eq i32 %17, 14
  br i1 %18, label %53, label %19

19:                                               ; preds = %3
  %20 = load ptr, ptr %9, align 8
  %21 = getelementptr inbounds %struct.Expr_, ptr %20, i32 0, i32 2
  %22 = load i16, ptr %21, align 8
  %23 = and i16 %22, 255
  %24 = zext i16 %23 to i32
  switch i32 %24, label %49 [
    i32 9, label %25
    i32 47, label %45
  ]

25:                                               ; preds = %19
  %26 = load ptr, ptr %9, align 8
  %27 = getelementptr inbounds %struct.Expr_, ptr %26, i32 0, i32 3
  %28 = getelementptr inbounds %struct.ExprCast, ptr %27, i32 0, i32 1
  %29 = load i32, ptr %28, align 4
  %30 = call ptr @exprptr(i32 noundef %29)
  %31 = getelementptr inbounds %struct.Expr_, ptr %30, i32 0, i32 3
  %32 = getelementptr inbounds %struct.ExprUnary, ptr %31, i32 0, i32 0
  %33 = load ptr, ptr %32, align 8
  store ptr %33, ptr %11, align 8
  %34 = load ptr, ptr %9, align 8
  %35 = load ptr, ptr %11, align 8
  store ptr %34, ptr %4, align 8
  store ptr %35, ptr %5, align 8
  %36 = load ptr, ptr %4, align 8
  %37 = getelementptr inbounds %struct.Expr_, ptr %36, i32 0, i32 1
  call void @llvm.memcpy.p0.p0.i64(ptr align 8 %6, ptr align 8 %37, i64 8, i1 false)
  %38 = load ptr, ptr %4, align 8
  %39 = load ptr, ptr %5, align 8
  call void @llvm.memcpy.p0.p0.i64(ptr align 8 %38, ptr align 8 %39, i64 56, i1 false)
  %40 = load ptr, ptr %4, align 8
  %41 = getelementptr inbounds %struct.Expr_, ptr %40, i32 0, i32 1
  call void @llvm.memcpy.p0.p0.i64(ptr align 8 %41, ptr align 8 %6, i64 8, i1 false)
  %42 = load ptr, ptr %8, align 8
  %43 = load ptr, ptr %9, align 8
  %44 = load ptr, ptr %10, align 8
  call void @cast_no_check(ptr noundef %42, ptr noundef %43, ptr noundef %44, i1 noundef zeroext false)
  br label %57

45:                                               ; preds = %19
  %46 = load ptr, ptr %9, align 8
  %47 = load ptr, ptr %10, align 8
  %48 = call zeroext i1 @insert_runtime_cast(ptr noundef %46, i32 noundef 33, ptr noundef %47)
  br label %57

49:                                               ; preds = %19
  br label %50

50:                                               ; preds = %49
  call void (ptr, ...) @error_exit(ptr noundef @.str.2, ptr noundef @.str.3, ptr noundef @__func__.cast_sa_to_vecarr, ptr noundef @.str.4, i32 noundef 1889) #6
  unreachable

51:                                               ; No predecessors!
  br label %52

52:                                               ; preds = %51
  br label %57

53:                                               ; preds = %3
  %54 = load ptr, ptr %10, align 8
  %55 = load ptr, ptr %9, align 8
  %56 = getelementptr inbounds %struct.Expr_, ptr %55, i32 0, i32 0
  store ptr %54, ptr %56, align 8
  br label %57

57:                                               ; preds = %53, %52, %45, %25
  ret void
}